target datalayout = "e-m:e-p270:32:32-p271:32:32-p272:64:64-i64:64-i128:128-f80:128-n8:16:32:64-S128"
target triple = "x86_64-pc-linux-gnu"

%struct.bio_st = type { ptr, ptr, ptr, ptr, ptr, i32, i32, i32, i32, i32, ptr, ptr, ptr, %struct.CRYPTO_REF_COUNT, i64, i64, %struct.crypto_ex_data_st }
%struct.CRYPTO_REF_COUNT = type { i32 }
%struct.crypto_ex_data_st = type { ptr, ptr }
%struct.bio_dgram_pair_st = type { ptr, %struct.ring_buf, i64, i64, i32, ptr, ptr, i8 }
%struct.ring_buf = type { ptr, i64, i64, [2 x i64] }

@.str.2 = private unnamed_addr constant [39 x i8] c"../openssl/crypto/bio/bss_dgram_pair.c\00", align 1
@__func__.dgram_mem_init = private unnamed_addr constant [15 x i8] c"dgram_mem_init\00", align 1

; Function Attrs: nounwind uwtable
define internal i32 @ring_buf_init(ptr noundef %0, i64 noundef %1) #0 {
  %3 = alloca i32, align 4
  %4 = alloca ptr, align 8
  %5 = alloca i64, align 8
  store ptr %0, ptr %4, align 8, !tbaa !57
  store i64 %1, ptr %5, align 8, !tbaa !8
  %6 = load i64, ptr %5, align 8, !tbaa !8
  %7 = call noalias ptr @CRYPTO_malloc(i64 noundef %6, ptr noundef @.str.2, i32 noundef 37)
  %8 = load ptr, ptr %4, align 8, !tbaa !57
  %9 = getelementptr inbounds nuw %struct.ring_buf, ptr %8, i32 0, i32 0
  store ptr %7, ptr %9, align 8, !tbaa !63
  %10 = load ptr, ptr %4, align 8, !tbaa !57
  %11 = getelementptr inbounds nuw %struct.ring_buf, ptr %10, i32 0, i32 0
  %12 = load ptr, ptr %11, align 8, !tbaa !63
  %13 = icmp eq ptr %12, null
  br i1 %13, label %14, label %15

14:                                               ; preds = %2
  store i32 0, ptr %3, align 4
  br label %27

15:                                               ; preds = %2
  %16 = load i64, ptr %5, align 8, !tbaa !8
  %17 = load ptr, ptr %4, align 8, !tbaa !57
  %18 = getelementptr inbounds nuw %struct.ring_buf, ptr %17, i32 0, i32 1
  store i64 %16, ptr %18, align 8, !tbaa !61
  %19 = load ptr, ptr %4, align 8, !tbaa !57
  %20 = getelementptr inbounds nuw %struct.ring_buf, ptr %19, i32 0, i32 2
  store i64 0, ptr %20, align 8, !tbaa !62
  %21 = load ptr, ptr %4, align 8, !tbaa !57
  %22 = getelementptr inbounds nuw %struct.ring_buf, ptr %21, i32 0, i32 3
  %23 = getelementptr inbounds [2 x i64], ptr %22, i64 0, i64 1
  store i64 0, ptr %23, align 8, !tbaa !8
  %24 = load ptr, ptr %4, align 8, !tbaa !57
  %25 = getelementptr inbounds nuw %struct.ring_buf, ptr %24, i32 0, i32 3
  %26 = getelementptr inbounds [2 x i64], ptr %25, i64 0, i64 0
  store i64 0, ptr %26, align 8, !tbaa !8
  store i32 1, ptr %3, align 4
  br label %27

27:                                               ; preds = %15, %14
  %28 = load i32, ptr %3, align 4
  ret i32 %28
}

; Function Attrs: nounwind uwtable
define internal i32 @dgram_pair_init(ptr noundef %0) #0 {
  %2 = alloca i32, align 4
  %3 = alloca ptr, align 8
  %4 = alloca ptr, align 8
  %5 = alloca i32, align 4
  store ptr %0, ptr %3, align 8, !tbaa !12
  call void @llvm.lifetime.start.p0(i64 8, ptr %4) #8
  %6 = call noalias ptr @CRYPTO_zalloc(i64 noundef 96, ptr noundef @.str.2, i32 noundef 279)
  store ptr %6, ptr %4, align 8, !tbaa !23
  %7 = load ptr, ptr %4, align 8, !tbaa !23
  %8 = icmp eq ptr %7, null
  br i1 %8, label %9, label %10

9:                                                ; preds = %1
  store i32 0, ptr %2, align 4
  store i32 1, ptr %5, align 4
  br label %33

10:                                               ; preds = %1
  %11 = load ptr, ptr %4, align 8, !tbaa !23
  %12 = getelementptr inbounds nuw %struct.bio_dgram_pair_st, ptr %11, i32 0, i32 3
  store i64 1472, ptr %12, align 8, !tbaa !31
  %13 = load ptr, ptr %4, align 8, !tbaa !23
  %14 = getelementptr inbounds nuw %struct.bio_dgram_pair_st, ptr %13, i32 0, i32 3
  %15 = load i64, ptr %14, align 8, !tbaa !31
  %16 = add i64 232, %15
  %17 = mul i64 9, %16
  %18 = load ptr, ptr %4, align 8, !tbaa !23
  %19 = getelementptr inbounds nuw %struct.bio_dgram_pair_st, ptr %18, i32 0, i32 2
  store i64 %17, ptr %19, align 8, !tbaa !32
  %20 = call ptr @CRYPTO_THREAD_lock_new()
  %21 = load ptr, ptr %4, align 8, !tbaa !23
  %22 = getelementptr inbounds nuw %struct.bio_dgram_pair_st, ptr %21, i32 0, i32 6
  store ptr %20, ptr %22, align 8, !tbaa !25
  %23 = load ptr, ptr %4, align 8, !tbaa !23
  %24 = getelementptr inbounds nuw %struct.bio_dgram_pair_st, ptr %23, i32 0, i32 6
  %25 = load ptr, ptr %24, align 8, !tbaa !25
  %26 = icmp eq ptr %25, null
  br i1 %26, label %27, label %29

27:                                               ; preds = %10
  %28 = load ptr, ptr %4, align 8, !tbaa !23
  call void @CRYPTO_free(ptr noundef %28, ptr noundef @.str.2, i32 noundef 290)
  store i32 0, ptr %2, align 4
  store i32 1, ptr %5, align 4
  br label %33

29:                                               ; preds = %10
  %30 = load ptr, ptr %4, align 8, !tbaa !23
  %31 = load ptr, ptr %3, align 8, !tbaa !12
  %32 = getelementptr inbounds nuw %struct.bio_st, ptr %31, i32 0, i32 10
  store ptr %30, ptr %32, align 8, !tbaa !16
  store i32 1, ptr %2, align 4
  store i32 1, ptr %5, align 4
  br label %33

33:                                               ; preds = %29, %27, %9
  call void @llvm.lifetime.end.p0(i64 8, ptr %4) #8
  %34 = load i32, ptr %2, align 4
  ret i32 %34
}

; Function Attrs: nounwind uwtable
define internal i32 @dgram_mem_init(ptr noundef %0) #0 {
  %2 = alloca i32, align 4
  %3 = alloca ptr, align 8
  %4 = alloca ptr, align 8
  %5 = alloca i32, align 4
  store ptr %0, ptr %3, align 8, !tbaa !12
  call void @llvm.lifetime.start.p0(i64 8, ptr %4) #8
  %6 = load ptr, ptr %3, align 8, !tbaa !12
  %7 = call i32 @dgram_pair_init(ptr noundef %6)
  %8 = icmp ne i32 %7, 0
  br i1 %8, label %10, label %9

9:                                                ; preds = %1
  store i32 0, ptr %2, align 4
  store i32 1, ptr %5, align 4
  br label %30

10:                                               ; preds = %1
  %11 = load ptr, ptr %3, align 8, !tbaa !12
  %12 = getelementptr inbounds nuw %struct.bio_st, ptr %11, i32 0, i32 10
  %13 = load ptr, ptr %12, align 8, !tbaa !16
  store ptr %13, ptr %4, align 8, !tbaa !23
  %14 = load ptr, ptr %4, align 8, !tbaa !23
  %15 = getelementptr inbounds nuw %struct.bio_dgram_pair_st, ptr %14, i32 0, i32 1
  %16 = load ptr, ptr %4, align 8, !tbaa !23
  %17 = getelementptr inbounds nuw %struct.bio_dgram_pair_st, ptr %16, i32 0, i32 2
  %18 = load i64, ptr %17, align 8, !tbaa !32
  %19 = call i32 @ring_buf_init(ptr noundef %15, i64 noundef %18)
  %20 = icmp eq i32 %19, 0
  br i1 %20, label %21, label %22

21:                                               ; preds = %10
  call void @ERR_new()
  call void @ERR_set_debug(ptr noundef @.str.2, i32 noundef 308, ptr noundef @__func__.dgram_mem_init)
  call void (i32, i32, ptr, ...) @ERR_set_error(i32 noundef 32, i32 noundef 524320, ptr noundef null)
  store i32 0, ptr %2, align 4
  store i32 1, ptr %5, align 4
  br label %30

22:                                               ; preds = %10
  %23 = load ptr, ptr %4, align 8, !tbaa !23
  %24 = getelementptr inbounds nuw %struct.bio_dgram_pair_st, ptr %23, i32 0, i32 7
  %25 = load i8, ptr %24, align 8
  %26 = and i8 %25, -9
  %27 = or i8 %26, 8
  store i8 %27, ptr %24, align 8
  %28 = load ptr, ptr %3, align 8, !tbaa !12
  %29 = getelementptr inbounds nuw %struct.bio_st, ptr %28, i32 0, i32 5
  store i32 1, ptr %29, align 8, !tbaa !45
  store i32 1, ptr %2, align 4
  store i32 1, ptr %5, align 4
  br label %30

30:                                               ; preds = %22, %21, %9
  call void @llvm.lifetime.end.p0(i64 8, ptr %4) #8
  %31 = load i32, ptr %2, align 4
  ret i32 %31
}