; Function Attrs: nounwind uwtable
define internal range(i32 0, 2) i32 @dgram_mem_init(ptr noundef writeonly captures(none) %0) #1 {
  %2 = tail call noalias ptr @CRYPTO_zalloc(i64 noundef 96, ptr noundef nonnull @.str.2, i32 noundef 279) #7
  %3 = icmp eq ptr %2, null
  br i1 %3, label %dgram_pair_init.exit.thread, label %4

4:                                                ; preds = %1
  %5 = getelementptr inbounds nuw i8, ptr %2, i64 56
  store i64 1472, ptr %5, align 8, !tbaa !33
  %6 = getelementptr inbounds nuw i8, ptr %2, i64 48
  store i64 15336, ptr %6, align 8, !tbaa !26
  %7 = tail call ptr @CRYPTO_THREAD_lock_new() #7
  %8 = getelementptr inbounds nuw i8, ptr %2, i64 80
  store ptr %7, ptr %8, align 8, !tbaa !18
  %9 = icmp eq ptr %7, null
  br i1 %9, label %10, label %11

10:                                               ; preds = %4
  tail call void @CRYPTO_free(ptr noundef nonnull %2, ptr noundef nonnull @.str.2, i32 noundef 290) #7
  br label %dgram_pair_init.exit.thread

11:                                               ; preds = %4
  %12 = getelementptr inbounds nuw i8, ptr %0, i64 64
  store ptr %2, ptr %12, align 8, !tbaa !8
  %13 = getelementptr inbounds nuw i8, ptr %2, i64 8
  %14 = tail call noalias ptr @CRYPTO_malloc(i64 noundef 15336, ptr noundef nonnull @.str.2, i32 noundef 37) #7
  store ptr %14, ptr %13, align 8, !tbaa !28
  %15 = icmp eq ptr %14, null
  br i1 %15, label %16, label %17

16:                                               ; preds = %11
  tail call void @ERR_new() #7
  tail call void @ERR_set_debug(ptr noundef nonnull @.str.2, i32 noundef 308, ptr noundef nonnull @__func__.dgram_mem_init) #7
  tail call void (i32, i32, ptr, ...) @ERR_set_error(i32 noundef 32, i32 noundef 524320, ptr noundef null) #7
  br label %dgram_pair_init.exit.thread

17:                                               ; preds = %11
  %18 = getelementptr inbounds nuw i8, ptr %2, i64 16
  store i64 15336, ptr %18, align 8, !tbaa !29
  %19 = getelementptr inbounds nuw i8, ptr %2, i64 24
  tail call void @llvm.memset.p0.i64(ptr noundef nonnull align 8 dereferenceable(24) %19, i8 0, i64 24, i1 false)
  %20 = getelementptr inbounds nuw i8, ptr %2, i64 88
  %21 = load i8, ptr %20, align 8
  %22 = or i8 %21, 8
  store i8 %22, ptr %20, align 8
  %23 = getelementptr inbounds nuw i8, ptr %0, i64 40
  store i32 1, ptr %23, align 8, !tbaa !30
  br label %dgram_pair_init.exit.thread

dgram_pair_init.exit.thread:                      ; preds = %1, %10, %17, %16
  %.0 = phi i32 [ 0, %16 ], [ 1, %17 ], [ 0, %10 ], [ 0, %1 ]
  ret i32 %.0
}